; Function Attrs: nounwind uwtable
define ptr @l_Lean_Loop_forIn_loop___at___private_Lean_Meta_Tactic_Grind_EMatch_0__Lean_Meta_Grind_EMatch_matchEqBwdPat___spec__1___lambda__5___boxed(ptr noundef readonly captures(none) %0) local_unnamed_addr #0 {
  %2 = load ptr, ptr %0, align 8, !tbaa !4
  %3 = getelementptr inbounds nuw i8, ptr %0, i64 8
  %4 = load ptr, ptr %3, align 8, !tbaa !4
  %5 = getelementptr inbounds nuw i8, ptr %0, i64 16
  %6 = load ptr, ptr %5, align 8, !tbaa !4
  %7 = getelementptr inbounds nuw i8, ptr %0, i64 24
  %8 = load ptr, ptr %7, align 8, !tbaa !4
  %9 = getelementptr inbounds nuw i8, ptr %0, i64 32
  %10 = load ptr, ptr %9, align 8, !tbaa !4
  %11 = getelementptr inbounds nuw i8, ptr %0, i64 40
  %12 = load ptr, ptr %11, align 8, !tbaa !4
  %13 = getelementptr inbounds nuw i8, ptr %0, i64 48
  %14 = load ptr, ptr %13, align 8, !tbaa !4
  %15 = getelementptr inbounds nuw i8, ptr %0, i64 56
  %16 = load ptr, ptr %15, align 8, !tbaa !4
  %17 = getelementptr inbounds nuw i8, ptr %0, i64 64
  %18 = load ptr, ptr %17, align 8, !tbaa !4
  %19 = getelementptr inbounds nuw i8, ptr %0, i64 72
  %20 = load ptr, ptr %19, align 8, !tbaa !4
  %21 = getelementptr inbounds nuw i8, ptr %0, i64 80
  %22 = load ptr, ptr %21, align 8, !tbaa !4
  %23 = getelementptr inbounds nuw i8, ptr %0, i64 88
  %24 = load ptr, ptr %23, align 8, !tbaa !4
  %25 = getelementptr inbounds nuw i8, ptr %0, i64 96
  %26 = load ptr, ptr %25, align 8, !tbaa !4
  %27 = getelementptr inbounds nuw i8, ptr %0, i64 104
  %28 = load ptr, ptr %27, align 8, !tbaa !4
  %29 = getelementptr inbounds nuw i8, ptr %0, i64 112
  %30 = load ptr, ptr %29, align 8, !tbaa !4
  %31 = getelementptr inbounds nuw i8, ptr %0, i64 120
  %32 = load ptr, ptr %31, align 8, !tbaa !4
  %33 = getelementptr inbounds nuw i8, ptr %0, i64 128
  %34 = load ptr, ptr %33, align 8, !tbaa !4
  %35 = getelementptr inbounds nuw i8, ptr %0, i64 136
  %36 = load ptr, ptr %35, align 8, !tbaa !4
  %37 = getelementptr inbounds nuw i8, ptr %0, i64 144
  %38 = load ptr, ptr %37, align 8, !tbaa !4
  %39 = getelementptr inbounds nuw i8, ptr %0, i64 152
  %40 = load ptr, ptr %39, align 8, !tbaa !4
  %41 = getelementptr inbounds nuw i8, ptr %0, i64 160
  %42 = load ptr, ptr %41, align 8, !tbaa !4
  %43 = ptrtoint ptr %14 to i64
  %44 = lshr i64 %43, 1
  %45 = trunc i64 %44 to i8
  %46 = and i64 %43, 1
  %.not = icmp eq i64 %46, 0
  br i1 %.not, label %47, label %lean_dec.exit47

47:                                               ; preds = %1
  %48 = load i32, ptr %14, align 4, !tbaa !8
  %49 = icmp sgt i32 %48, 1
  br i1 %49, label %50, label %52, !prof !11

50:                                               ; preds = %47
  %51 = add nsw i32 %48, -1
  store i32 %51, ptr %14, align 4, !tbaa !8
  br label %lean_dec.exit47

52:                                               ; preds = %47
  %.not.i = icmp eq i32 %48, 0
  br i1 %.not.i, label %lean_dec.exit47, label %53

53:                                               ; preds = %52
  tail call void @lean_dec_ref_cold(ptr noundef nonnull %14) #5
  br label %lean_dec.exit47

lean_dec.exit47:                                  ; preds = %53, %52, %50, %1
  %54 = tail call ptr @l_Lean_Loop_forIn_loop___at___private_Lean_Meta_Tactic_Grind_EMatch_0__Lean_Meta_Grind_EMatch_matchEqBwdPat___spec__1___lambda__5(ptr noundef %2, ptr noundef %4, ptr noundef %6, ptr noundef %8, ptr noundef %10, ptr noundef %12, i8 noundef zeroext %45, ptr noundef %16, ptr noundef %18, ptr poison, ptr noundef %22, ptr noundef %24, ptr noundef %26, ptr noundef %28, ptr noundef %30, ptr noundef %32, ptr noundef %34, ptr noundef %36, ptr noundef %38, ptr noundef %40, ptr noundef %42)
  %55 = ptrtoint ptr %20 to i64
  %56 = and i64 %55, 1
  %.not52 = icmp eq i64 %56, 0
  br i1 %.not52, label %57, label %lean_dec.exit46

57:                                               ; preds = %lean_dec.exit47
  %58 = load i32, ptr %20, align 4, !tbaa !8
  %59 = icmp sgt i32 %58, 1
  br i1 %59, label %60, label %62, !prof !11

60:                                               ; preds = %57
  %61 = add nsw i32 %58, -1
  store i32 %61, ptr %20, align 4, !tbaa !8
  br label %lean_dec.exit46

62:                                               ; preds = %57
  %.not.i48 = icmp eq i32 %58, 0
  br i1 %.not.i48, label %lean_dec.exit46, label %63

63:                                               ; preds = %62
  tail call void @lean_dec_ref_cold(ptr noundef nonnull %20) #5
  br label %lean_dec.exit46

lean_dec.exit46:                                  ; preds = %63, %62, %60, %lean_dec.exit47
  %64 = ptrtoint ptr %16 to i64
  %65 = and i64 %64, 1
  %.not53 = icmp eq i64 %65, 0
  br i1 %.not53, label %66, label %lean_dec.exit

66:                                               ; preds = %lean_dec.exit46
  %67 = load i32, ptr %16, align 4, !tbaa !8
  %68 = icmp sgt i32 %67, 1
  br i1 %68, label %69, label %71, !prof !11

69:                                               ; preds = %66
  %70 = add nsw i32 %67, -1
  store i32 %70, ptr %16, align 4, !tbaa !8
  br label %lean_dec.exit

71:                                               ; preds = %66
  %.not.i50 = icmp eq i32 %67, 0
  br i1 %.not.i50, label %lean_dec.exit, label %72

72:                                               ; preds = %71
  tail call void @lean_dec_ref_cold(ptr noundef nonnull %16) #5
  br label %lean_dec.exit

lean_dec.exit:                                    ; preds = %72, %71, %69, %lean_dec.exit46
  ret ptr %54
}